target datalayout = "e-m:e-p270:32:32-p271:32:32-p272:64:64-i64:64-i128:128-f80:128-n8:16:32:64-S128"
target triple = "x86_64-pc-linux-gnu"

%"class.icu_77::UnicodeString" = type { %"class.icu_77::Replaceable", %"union.icu_77::UnicodeString::StackBufferOrFields" }
%"class.icu_77::Replaceable" = type { %"class.icu_77::UObject" }
%"class.icu_77::UObject" = type { ptr }
%"union.icu_77::UnicodeString::StackBufferOrFields" = type { %struct.anon.0, [32 x i8] }
%struct.anon.0 = type { i16, i32, i32, ptr }
%"class.icu_77::VTimeZone" = type { %"class.icu_77::BasicTimeZone", ptr, ptr, %"class.icu_77::UnicodeString", double, %"class.icu_77::UnicodeString", %"class.icu_77::UnicodeString" }
%"class.icu_77::BasicTimeZone" = type { %"class.icu_77::TimeZone" }
%"class.icu_77::TimeZone" = type { %"class.icu_77::UObject", %"class.icu_77::UnicodeString" }

; Function Attrs: mustprogress uwtable
define noundef signext i8 @_ZNK6icu_779VTimeZone14inDaylightTimeEdR10UErrorCode(ptr noundef nonnull align 8 dereferenceable(288) %0, double noundef %1, ptr noundef nonnull align 4 dereferenceable(4) %2) unnamed_addr #1 align 2 {
  %4 = alloca ptr, align 8
  %5 = alloca double, align 8
  %6 = alloca ptr, align 8
  store ptr %0, ptr %4, align 8, !tbaa !29
  store double %1, ptr %5, align 8, !tbaa !77
  store ptr %2, ptr %6, align 8, !tbaa !55
  %7 = load ptr, ptr %4, align 8
  %8 = getelementptr inbounds nuw %"class.icu_77::VTimeZone", ptr %7, i32 0, i32 1
  %9 = load ptr, ptr %8, align 8, !tbaa !33
  %10 = load double, ptr %5, align 8, !tbaa !77
  %11 = load ptr, ptr %6, align 8, !tbaa !55
  %12 = load ptr, ptr %9, align 8, !tbaa !31
  %13 = getelementptr inbounds ptr, ptr %12, i64 10
  %14 = load ptr, ptr %13, align 8
  %15 = call noundef signext i8 %14(ptr noundef nonnull align 8 dereferenceable(72) %9, double noundef %10, ptr noundef nonnull align 4 dereferenceable(4) %11)
  ret i8 %15
}