; Function Attrs: mustprogress uwtable
define noundef signext i8 @_ZNK6icu_779VTimeZone14inDaylightTimeEdR10UErrorCode(ptr noundef nonnull readonly align 8 captures(none) dereferenceable(288) %0, double noundef %1, ptr noundef nonnull align 4 dereferenceable(4) %2) unnamed_addr #2 align 2 {
  %4 = getelementptr inbounds nuw i8, ptr %0, i64 72
  %5 = load ptr, ptr %4, align 8, !tbaa !29
  %6 = load ptr, ptr %5, align 8, !tbaa !17
  %7 = getelementptr inbounds nuw i8, ptr %6, i64 80
  %8 = load ptr, ptr %7, align 8
  %9 = tail call noundef signext i8 %8(ptr noundef nonnull align 8 dereferenceable(72) %5, double noundef %1, ptr noundef nonnull align 4 dereferenceable(4) %2)
  ret i8 %9
}